; Function Attrs: nounwind uwtable
define internal ptr @gmac_new(ptr noundef %0) #0 {
  %2 = tail call i32 @ossl_prov_is_running() #5
  %.not = icmp eq i32 %2, 0
  br i1 %.not, label %.split, label %3

3:                                                ; preds = %1
  %4 = tail call noalias ptr @CRYPTO_zalloc(i64 noundef 40, ptr noundef nonnull @.str, i32 noundef 65) #5
  %5 = icmp eq ptr %4, null
  br i1 %5, label %.split, label %6

6:                                                ; preds = %3
  %7 = tail call ptr @EVP_CIPHER_CTX_new() #5
  %8 = getelementptr inbounds nuw i8, ptr %4, i64 8
  store ptr %7, ptr %8, align 8, !tbaa !3
  %9 = icmp eq ptr %7, null
  br i1 %9, label %gmac_free.exit, label %11

gmac_free.exit:                                   ; preds = %6
  tail call void @EVP_CIPHER_CTX_free(ptr noundef null) #5
  %10 = getelementptr inbounds nuw i8, ptr %4, i64 16
  tail call void @ossl_prov_cipher_reset(ptr noundef nonnull %10) #5
  tail call void @CRYPTO_free(ptr noundef nonnull %4, ptr noundef nonnull @.str, i32 noundef 54) #5
  br label %.split

11:                                               ; preds = %6
  store ptr %0, ptr %4, align 8, !tbaa !12
  br label %.split

.split:                                           ; preds = %3, %gmac_free.exit, %1, %11
  %.0 = phi ptr [ %4, %11 ], [ null, %1 ], [ null, %gmac_free.exit ], [ null, %3 ]
  ret ptr %.0
}